target datalayout = "e-m:e-p270:32:32-p271:32:32-p272:64:64-i64:64-i128:128-f80:128-n8:16:32:64-S128"
target triple = "x86_64-pc-linux-gnu"

%struct.archive_string = type { ptr, i64, i64 }
%struct.pax = type { i64, i64, %struct.archive_string, %struct.archive_string, %struct.archive_string, i64, ptr, ptr, ptr, i32, i32 }
%struct.sparse_block = type { ptr, i32, i64, i64 }

; Function Attrs: nounwind uwtable
define internal void @sparse_list_clear(ptr noundef %0) #0 {
  %2 = alloca ptr, align 8
  %3 = alloca ptr, align 8
  store ptr %0, ptr %2, align 8
  br label %4

4:                                                ; preds = %9, %1
  %5 = load ptr, ptr %2, align 8
  %6 = getelementptr inbounds %struct.pax, ptr %5, i32 0, i32 6
  %7 = load ptr, ptr %6, align 8
  %8 = icmp ne ptr %7, null
  br i1 %8, label %9, label %19

9:                                                ; preds = %4
  %10 = load ptr, ptr %2, align 8
  %11 = getelementptr inbounds %struct.pax, ptr %10, i32 0, i32 6
  %12 = load ptr, ptr %11, align 8
  store ptr %12, ptr %3, align 8
  %13 = load ptr, ptr %3, align 8
  %14 = getelementptr inbounds %struct.sparse_block, ptr %13, i32 0, i32 0
  %15 = load ptr, ptr %14, align 8
  %16 = load ptr, ptr %2, align 8
  %17 = getelementptr inbounds %struct.pax, ptr %16, i32 0, i32 6
  store ptr %15, ptr %17, align 8
  %18 = load ptr, ptr %3, align 8
  call void @free(ptr noundef %18) #11
  br label %4, !llvm.loop !12

19:                                               ; preds = %4
  %20 = load ptr, ptr %2, align 8
  %21 = getelementptr inbounds %struct.pax, ptr %20, i32 0, i32 7
  store ptr null, ptr %21, align 8
  ret void
}