; Function Attrs: nounwind uwtable
define internal fastcc void @sparse_list_clear(ptr noundef captures(none) %0) unnamed_addr #0 {
  %2 = getelementptr inbounds nuw i8, ptr %0, i64 96
  %3 = load ptr, ptr %2, align 8
  %.not6 = icmp eq ptr %3, null
  br i1 %.not6, label %._crit_edge, label %.lr.ph

.lr.ph:                                           ; preds = %1, %.lr.ph
  %4 = phi ptr [ %6, %.lr.ph ], [ %3, %1 ]
  %5 = load ptr, ptr %4, align 8
  store ptr %5, ptr %2, align 8
  tail call void @free(ptr noundef nonnull %4) #15
  %6 = load ptr, ptr %2, align 8
  %.not = icmp eq ptr %6, null
  br i1 %.not, label %._crit_edge, label %.lr.ph, !llvm.loop !8

._crit_edge:                                      ; preds = %.lr.ph, %1
  %7 = getelementptr inbounds nuw i8, ptr %0, i64 104
  store ptr null, ptr %7, align 8
  ret void
}